target datalayout = "e-m:e-p270:32:32-p271:32:32-p272:64:64-i64:64-i128:128-f80:128-n8:16:32:64-S128"
target triple = "x86_64-pc-linux-gnu"

%struct._object = type { %union.anon, ptr }
%union.anon = type { i64 }
%struct.anon = type { i32, i32 }

; Function Attrs: alwaysinline nounwind uwtable
define internal i32 @_Py_IsImmortal(ptr noundef %0) #7 {
  %2 = alloca ptr, align 8
  store ptr %0, ptr %2, align 8, !tbaa !3
  %3 = load ptr, ptr %2, align 8, !tbaa !3
  %4 = getelementptr inbounds nuw %struct._object, ptr %3, i32 0, i32 0
  %5 = getelementptr inbounds nuw %struct.anon, ptr %4, i32 0, i32 0
  %6 = load i32, ptr %5, align 8, !tbaa !47
  %7 = icmp slt i32 %6, 0
  %8 = zext i1 %7 to i32
  ret i32 %8
}

; Function Attrs: alwaysinline nounwind uwtable
define internal void @Py_DECREF(ptr noundef %0) #7 {
  %2 = alloca ptr, align 8
  store ptr %0, ptr %2, align 8, !tbaa !3
  %3 = load ptr, ptr %2, align 8, !tbaa !3
  %4 = call i32 @_Py_IsImmortal(ptr noundef %3)
  %5 = icmp ne i32 %4, 0
  br i1 %5, label %6, label %7

6:                                                ; preds = %1
  br label %16

7:                                                ; preds = %1
  %8 = load ptr, ptr %2, align 8, !tbaa !3
  %9 = getelementptr inbounds nuw %struct._object, ptr %8, i32 0, i32 0
  %10 = getelementptr inbounds nuw %struct.anon, ptr %9, i32 0, i32 0
  %11 = load i32, ptr %10, align 8, !tbaa !47
  %12 = add i32 %11, -1
  store i32 %12, ptr %10, align 8, !tbaa !47
  %13 = icmp eq i32 %12, 0
  br i1 %13, label %14, label %16

14:                                               ; preds = %7
  %15 = load ptr, ptr %2, align 8, !tbaa !3
  call void @_Py_Dealloc(ptr noundef %15)
  br label %16

16:                                               ; preds = %6, %14, %7
  ret void
}

; Function Attrs: inlinehint nounwind uwtable
define internal void @Py_XDECREF(ptr noundef %0) #6 {
  %2 = alloca ptr, align 8
  store ptr %0, ptr %2, align 8, !tbaa !3
  %3 = load ptr, ptr %2, align 8, !tbaa !3
  %4 = icmp ne ptr %3, null
  br i1 %4, label %5, label %7

5:                                                ; preds = %1
  %6 = load ptr, ptr %2, align 8, !tbaa !3
  call void @Py_DECREF(ptr noundef %6)
  br label %7

7:                                                ; preds = %5, %1
  ret void
}

; Function Attrs: inlinehint nounwind uwtable
define internal i32 @_Py_bit_length(i64 noundef %0) #6 {
  %2 = alloca i32, align 4
  %3 = alloca i64, align 8
  store i64 %0, ptr %3, align 8, !tbaa !11
  %4 = load i64, ptr %3, align 8, !tbaa !11
  %5 = icmp ne i64 %4, 0
  br i1 %5, label %6, label %11

6:                                                ; preds = %1
  %7 = load i64, ptr %3, align 8, !tbaa !11
  %8 = call i64 @llvm.ctlz.i64(i64 %7, i1 true)
  %9 = trunc i64 %8 to i32
  %10 = sub i32 64, %9
  store i32 %10, ptr %2, align 4
  br label %12

11:                                               ; preds = %1
  store i32 0, ptr %2, align 4
  br label %12

12:                                               ; preds = %11, %6
  %13 = load i32, ptr %2, align 4
  ret i32 %13
}

; Function Attrs: nounwind uwtable
define internal ptr @factorial_partial_product(i64 noundef %0, i64 noundef %1, i64 noundef %2) #0 {
  %4 = alloca ptr, align 8
  %5 = alloca i64, align 8
  %6 = alloca i64, align 8
  %7 = alloca i64, align 8
  %8 = alloca i64, align 8
  %9 = alloca i64, align 8
  %10 = alloca ptr, align 8
  %11 = alloca ptr, align 8
  %12 = alloca ptr, align 8
  %13 = alloca i64, align 8
  %14 = alloca i64, align 8
  %15 = alloca i32, align 4
  store i64 %0, ptr %5, align 8, !tbaa !11
  store i64 %1, ptr %6, align 8, !tbaa !11
  store i64 %2, ptr %7, align 8, !tbaa !11
  call void @llvm.lifetime.start.p0(i64 8, ptr %8) #10
  call void @llvm.lifetime.start.p0(i64 8, ptr %9) #10
  call void @llvm.lifetime.start.p0(i64 8, ptr %10) #10
  store ptr null, ptr %10, align 8, !tbaa !3
  call void @llvm.lifetime.start.p0(i64 8, ptr %11) #10
  store ptr null, ptr %11, align 8, !tbaa !3
  call void @llvm.lifetime.start.p0(i64 8, ptr %12) #10
  store ptr null, ptr %12, align 8, !tbaa !3
  %16 = load i64, ptr %6, align 8, !tbaa !11
  %17 = load i64, ptr %5, align 8, !tbaa !11
  %18 = sub i64 %16, %17
  %19 = udiv i64 %18, 2
  store i64 %19, ptr %9, align 8, !tbaa !11
  %20 = load i64, ptr %9, align 8, !tbaa !11
  %21 = icmp ule i64 %20, 64
  br i1 %21, label %22, label %45

22:                                               ; preds = %3
  %23 = load i64, ptr %9, align 8, !tbaa !11
  %24 = load i64, ptr %7, align 8, !tbaa !11
  %25 = mul i64 %23, %24
  %26 = icmp ule i64 %25, 64
  br i1 %26, label %27, label %45

27:                                               ; preds = %22
  call void @llvm.lifetime.start.p0(i64 8, ptr %13) #10
  call void @llvm.lifetime.start.p0(i64 8, ptr %14) #10
  %28 = load i64, ptr %5, align 8, !tbaa !11
  store i64 %28, ptr %14, align 8, !tbaa !11
  %29 = load i64, ptr %5, align 8, !tbaa !11
  %30 = add i64 %29, 2
  store i64 %30, ptr %13, align 8, !tbaa !11
  br label %31

31:                                               ; preds = %39, %27
  %32 = load i64, ptr %13, align 8, !tbaa !11
  %33 = load i64, ptr %6, align 8, !tbaa !11
  %34 = icmp ult i64 %32, %33
  br i1 %34, label %35, label %42

35:                                               ; preds = %31
  %36 = load i64, ptr %13, align 8, !tbaa !11
  %37 = load i64, ptr %14, align 8, !tbaa !11
  %38 = mul i64 %37, %36
  store i64 %38, ptr %14, align 8, !tbaa !11
  br label %39

39:                                               ; preds = %35
  %40 = load i64, ptr %13, align 8, !tbaa !11
  %41 = add i64 %40, 2
  store i64 %41, ptr %13, align 8, !tbaa !11
  br label %31, !llvm.loop !64

42:                                               ; preds = %31
  %43 = load i64, ptr %14, align 8, !tbaa !11
  %44 = call ptr @PyLong_FromUnsignedLong(i64 noundef %43)
  store ptr %44, ptr %4, align 8
  store i32 1, ptr %15, align 4
  call void @llvm.lifetime.end.p0(i64 8, ptr %14) #10
  call void @llvm.lifetime.end.p0(i64 8, ptr %13) #10
  br label %76

45:                                               ; preds = %22, %3
  %46 = load i64, ptr %5, align 8, !tbaa !11
  %47 = load i64, ptr %9, align 8, !tbaa !11
  %48 = add i64 %46, %47
  %49 = or i64 %48, 1
  store i64 %49, ptr %8, align 8, !tbaa !11
  %50 = load i64, ptr %5, align 8, !tbaa !11
  %51 = load i64, ptr %8, align 8, !tbaa !11
  %52 = load i64, ptr %8, align 8, !tbaa !11
  %53 = sub i64 %52, 2
  %54 = call i32 @_Py_bit_length(i64 noundef %53)
  %55 = sext i32 %54 to i64
  %56 = call ptr @factorial_partial_product(i64 noundef %50, i64 noundef %51, i64 noundef %55)
  store ptr %56, ptr %10, align 8, !tbaa !3
  %57 = load ptr, ptr %10, align 8, !tbaa !3
  %58 = icmp eq ptr %57, null
  br i1 %58, label %59, label %60

59:                                               ; preds = %45
  br label %72

60:                                               ; preds = %45
  %61 = load i64, ptr %8, align 8, !tbaa !11
  %62 = load i64, ptr %6, align 8, !tbaa !11
  %63 = load i64, ptr %7, align 8, !tbaa !11
  %64 = call ptr @factorial_partial_product(i64 noundef %61, i64 noundef %62, i64 noundef %63)
  store ptr %64, ptr %11, align 8, !tbaa !3
  %65 = load ptr, ptr %11, align 8, !tbaa !3
  %66 = icmp eq ptr %65, null
  br i1 %66, label %67, label %68

67:                                               ; preds = %60
  br label %72

68:                                               ; preds = %60
  %69 = load ptr, ptr %10, align 8, !tbaa !3
  %70 = load ptr, ptr %11, align 8, !tbaa !3
  %71 = call ptr @PyNumber_Multiply(ptr noundef %69, ptr noundef %70)
  store ptr %71, ptr %12, align 8, !tbaa !3
  br label %72

72:                                               ; preds = %68, %67, %59
  %73 = load ptr, ptr %10, align 8, !tbaa !3
  call void @Py_XDECREF(ptr noundef %73)
  %74 = load ptr, ptr %11, align 8, !tbaa !3
  call void @Py_XDECREF(ptr noundef %74)
  %75 = load ptr, ptr %12, align 8, !tbaa !3
  store ptr %75, ptr %4, align 8
  store i32 1, ptr %15, align 4
  br label %76

76:                                               ; preds = %72, %42
  call void @llvm.lifetime.end.p0(i64 8, ptr %12) #10
  call void @llvm.lifetime.end.p0(i64 8, ptr %11) #10
  call void @llvm.lifetime.end.p0(i64 8, ptr %10) #10
  call void @llvm.lifetime.end.p0(i64 8, ptr %9) #10
  call void @llvm.lifetime.end.p0(i64 8, ptr %8) #10
  %77 = load ptr, ptr %4, align 8
  ret ptr %77
}