; Function Attrs: nounwind uwtable
define internal fastcc ptr @factorial_partial_product(i64 noundef range(i64 1, 0) %0, i64 noundef range(i64 1, 0) %1, i64 noundef range(i64 0, 65) %2) unnamed_addr #0 {
  %4 = sub i64 %1, %0
  %5 = lshr i64 %4, 1
  %6 = icmp ult i64 %4, 130
  %7 = mul nuw nsw i64 %5, %2
  %8 = icmp samesign ult i64 %7, 65
  %or.cond = select i1 %6, i1 %8, i1 false
  br i1 %or.cond, label %.preheader, label %13

.preheader:                                       ; preds = %3
  %.02849 = add i64 %0, 2
  %9 = icmp ult i64 %.02849, %1
  br i1 %9, label %.lr.ph, label %._crit_edge

.lr.ph:                                           ; preds = %.preheader, %.lr.ph
  %.02851 = phi i64 [ %.028, %.lr.ph ], [ %.02849, %.preheader ]
  %.050 = phi i64 [ %10, %.lr.ph ], [ %0, %.preheader ]
  %10 = mul i64 %.050, %.02851
  %.028 = add i64 %.02851, 2
  %11 = icmp ult i64 %.028, %1
  br i1 %11, label %.lr.ph, label %._crit_edge, !llvm.loop !63

._crit_edge:                                      ; preds = %.lr.ph, %.preheader
  %.0.lcssa = phi i64 [ %0, %.preheader ], [ %10, %.lr.ph ]
  %12 = tail call ptr @PyLong_FromUnsignedLong(i64 noundef %.0.lcssa) #16
  br label %Py_XDECREF.exit38

13:                                               ; preds = %3
  %14 = add i64 %5, %0
  %15 = or i64 %14, 1
  %16 = add i64 %15, -2
  %17 = tail call range(i64 0, 65) i64 @llvm.ctlz.i64(i64 range(i64 -1, -2) %16, i1 true)
  %18 = sub nuw nsw i64 64, %17
  %19 = tail call fastcc ptr @factorial_partial_product(i64 noundef %0, i64 noundef %15, i64 noundef %18)
  %20 = icmp eq ptr %19, null
  br i1 %20, label %Py_XDECREF.exit38, label %21

21:                                               ; preds = %13
  %22 = tail call fastcc ptr @factorial_partial_product(i64 noundef %15, i64 noundef %1, i64 noundef %2)
  %23 = icmp eq ptr %22, null
  br i1 %23, label %26, label %24

24:                                               ; preds = %21
  %25 = tail call ptr @PyNumber_Multiply(ptr noundef nonnull %19, ptr noundef nonnull %22) #16
  br label %26

26:                                               ; preds = %21, %24
  %.029.ph = phi ptr [ %25, %24 ], [ null, %21 ]
  %27 = load i32, ptr %19, align 8, !tbaa !13
  %.not.i.i = icmp sgt i32 %27, -1
  br i1 %.not.i.i, label %28, label %Py_XDECREF.exit

28:                                               ; preds = %26
  %29 = add nsw i32 %27, -1
  store i32 %29, ptr %19, align 8, !tbaa !13
  %30 = icmp eq i32 %29, 0
  br i1 %30, label %31, label %Py_XDECREF.exit

31:                                               ; preds = %28
  tail call void @_Py_Dealloc(ptr noundef nonnull %19) #16
  br label %Py_XDECREF.exit

Py_XDECREF.exit:                                  ; preds = %26, %28, %31
  br i1 %23, label %Py_XDECREF.exit38, label %32

32:                                               ; preds = %Py_XDECREF.exit
  %33 = load i32, ptr %22, align 8, !tbaa !13
  %.not.i.i37 = icmp sgt i32 %33, -1
  br i1 %.not.i.i37, label %34, label %Py_XDECREF.exit38

34:                                               ; preds = %32
  %35 = add nsw i32 %33, -1
  store i32 %35, ptr %22, align 8, !tbaa !13
  %36 = icmp eq i32 %35, 0
  br i1 %36, label %37, label %Py_XDECREF.exit38

37:                                               ; preds = %34
  tail call void @_Py_Dealloc(ptr noundef nonnull %22) #16
  br label %Py_XDECREF.exit38

Py_XDECREF.exit38:                                ; preds = %13, %37, %34, %32, %Py_XDECREF.exit, %._crit_edge
  %.031 = phi ptr [ %12, %._crit_edge ], [ %.029.ph, %Py_XDECREF.exit ], [ %.029.ph, %32 ], [ %.029.ph, %34 ], [ %.029.ph, %37 ], [ null, %13 ]
  ret ptr %.031
}